; Function Attrs: mustprogress nounwind uwtable
define hidden void @_ZN17JfrStackTraceMarkC2Ev(ptr nocapture noundef nonnull writeonly align 8 dereferenceable(24) %0) unnamed_addr #0 align 2 {
  %2 = tail call align 8 ptr @llvm.threadlocal.address.p0(ptr align 8 @_ZN6Thread12_thr_currentE)
  %3 = load ptr, ptr %2, align 8
  store ptr %3, ptr %0, align 8
  %4 = getelementptr inbounds i8, ptr %0, i64 8
  %5 = getelementptr inbounds i8, ptr %3, i64 704
  tail call void @llvm.memset.p0.i64(ptr noundef nonnull align 8 dereferenceable(16) %4, i8 0, i64 16, i1 false)
  %6 = load i64, ptr %5, align 8
  %.not = icmp eq i64 %6, -1
  br i1 %.not, label %11, label %7

7:                                                ; preds = %1
  %8 = getelementptr inbounds i8, ptr %0, i64 16
  store i64 %6, ptr %4, align 8
  %9 = getelementptr inbounds i8, ptr %3, i64 712
  %10 = load i64, ptr %9, align 8
  store i64 %10, ptr %8, align 8
  br label %11

11:                                               ; preds = %7, %1
  %12 = tail call noundef i64 @_ZN23JfrStackTraceRepository6recordEP6Threadil(ptr noundef nonnull %3, i32 noundef 0, i64 noundef -1) #5
  store i64 %12, ptr %5, align 8
  %13 = getelementptr inbounds i8, ptr %3, i64 712
  store i64 0, ptr %13, align 8
  ret void
}